; Function Attrs: mustprogress nounwind uwtable
define dso_local void @_ZN5clang4ento15CheckerRegistry13addDependencyEN4llvm9StringRefES3_(ptr nocapture noundef nonnull readonly align 8 dereferenceable(24) %0, ptr %1, i64 %2, ptr %3, i64 %4) local_unnamed_addr #0 align 2 {
  %6 = alloca %"class.llvm::StringRef", align 8
  %7 = alloca %"class.llvm::StringRef", align 8
  store ptr %1, ptr %6, align 8
  %8 = getelementptr inbounds nuw i8, ptr %6, i64 8
  store i64 %2, ptr %8, align 8
  store ptr %3, ptr %7, align 8
  %9 = getelementptr inbounds nuw i8, ptr %7, i64 8
  store i64 %4, ptr %9, align 8
  %10 = load ptr, ptr %0, align 8
  %11 = getelementptr inbounds nuw i8, ptr %10, i64 136
  %12 = call noundef nonnull align 8 dereferenceable(32) ptr @_ZN4llvm15SmallVectorImplISt4pairINS_9StringRefES2_EE12emplace_backIJRS2_S6_EEERS3_DpOT_(ptr noundef nonnull align 8 dereferenceable(16) %11, ptr noundef nonnull align 8 dereferenceable(16) %6, ptr noundef nonnull align 8 dereferenceable(16) %7)
  ret void
}